; Function Attrs: mustprogress uwtable
define range(i32 -1, 1) i32 @LGBM_BoosterRefit(ptr noundef nonnull %0, ptr noundef %1, i32 noundef %2, i32 noundef %3) local_unnamed_addr #5 personality ptr @__gxx_personality_v0 {
  %5 = alloca %"class.std::__cxx11::basic_string", align 8
  %6 = alloca %"class.std::allocator", align 1
  invoke void @_ZN8LightGBM7Booster5RefitEPKiii(ptr noundef nonnull align 8 dereferenceable(1824) %0, ptr noundef %1, i32 noundef %2, i32 noundef %3)
          to label %42 unwind label %7

7:                                                ; preds = %4
  %8 = landingpad { ptr, i32 }
          catch ptr @_ZTISt9exception
          catch ptr @_ZTINSt7__cxx1112basic_stringIcSt11char_traitsIcESaIcEEE
          catch ptr null
  %9 = extractvalue { ptr, i32 } %8, 0
  %10 = extractvalue { ptr, i32 } %8, 1
  %11 = tail call i32 @llvm.eh.typeid.for.p0(ptr nonnull @_ZTISt9exception) #26
  %12 = icmp eq i32 %10, %11
  br i1 %12, label %13, label %21

13:                                               ; preds = %7
  %14 = tail call ptr @__cxa_begin_catch(ptr %9) #26
  %15 = load ptr, ptr %14, align 8, !tbaa !14
  %16 = getelementptr inbounds nuw i8, ptr %15, i64 16
  %17 = load ptr, ptr %16, align 8
  %18 = tail call noundef ptr %17(ptr noundef nonnull align 8 dereferenceable(8) %14) #26
  %19 = tail call noundef nonnull align 16 ptr @llvm.threadlocal.address.p0(ptr align 16 @_ZZL12LastErrorMsgvE7err_msg)
  %20 = tail call i32 (ptr, i64, ptr, ...) @snprintf(ptr noundef nonnull dereferenceable(1) %19, i64 noundef 512, ptr noundef nonnull @.str.1, ptr noundef %18) #26
  tail call void @__cxa_end_catch()
  br label %42

21:                                               ; preds = %7
  %22 = tail call i32 @llvm.eh.typeid.for.p0(ptr nonnull @_ZTINSt7__cxx1112basic_stringIcSt11char_traitsIcESaIcEEE) #26
  %23 = icmp eq i32 %10, %22
  %24 = tail call ptr @__cxa_begin_catch(ptr %9) #26
  br i1 %23, label %25, label %29

25:                                               ; preds = %21
  %26 = load ptr, ptr %24, align 8, !tbaa !13
  %27 = tail call noundef nonnull align 16 ptr @llvm.threadlocal.address.p0(ptr align 16 @_ZZL12LastErrorMsgvE7err_msg)
  %28 = tail call i32 (ptr, i64, ptr, ...) @snprintf(ptr noundef nonnull dereferenceable(1) %27, i64 noundef 512, ptr noundef nonnull @.str.1, ptr noundef %26) #26
  tail call void @__cxa_end_catch()
  br label %42

29:                                               ; preds = %21
  call void @llvm.lifetime.start.p0(i64 32, ptr nonnull %5) #26
  call void @llvm.lifetime.start.p0(i64 1, ptr nonnull %6) #26
  invoke void @_ZNSt7__cxx1112basic_stringIcSt11char_traitsIcESaIcEEC2EPKcRKS3_(ptr noundef nonnull align 8 dereferenceable(32) %5, ptr noundef nonnull @.str, ptr noundef nonnull align 1 dereferenceable(1) %6)
          to label %30 unwind label %40

30:                                               ; preds = %29
  %31 = load ptr, ptr %5, align 8, !tbaa !13
  %32 = call noundef nonnull align 16 ptr @llvm.threadlocal.address.p0(ptr align 16 @_ZZL12LastErrorMsgvE7err_msg)
  %33 = call i32 (ptr, i64, ptr, ...) @snprintf(ptr noundef nonnull dereferenceable(1) %32, i64 noundef 512, ptr noundef nonnull @.str.1, ptr noundef %31) #26
  %34 = load ptr, ptr %5, align 8, !tbaa !13
  %35 = getelementptr inbounds nuw i8, ptr %5, i64 16
  %36 = icmp eq ptr %34, %35
  br i1 %36, label %_ZNKSt7__cxx1112basic_stringIcSt11char_traitsIcESaIcEE11_M_is_localEv.exit.thread.i.i, label %_ZNKSt7__cxx1112basic_stringIcSt11char_traitsIcESaIcEE11_M_is_localEv.exit.i.i

_ZNKSt7__cxx1112basic_stringIcSt11char_traitsIcESaIcEE11_M_is_localEv.exit.thread.i.i: ; preds = %30
  %37 = getelementptr inbounds nuw i8, ptr %5, i64 8
  %38 = load i64, ptr %37, align 8, !tbaa !4
  %39 = icmp ult i64 %38, 16
  call void @llvm.assume(i1 %39)
  br label %_ZNSt7__cxx1112basic_stringIcSt11char_traitsIcESaIcEED2Ev.exit

_ZNKSt7__cxx1112basic_stringIcSt11char_traitsIcESaIcEE11_M_is_localEv.exit.i.i: ; preds = %30
  call void @_ZdlPv(ptr noundef %34) #39
  br label %_ZNSt7__cxx1112basic_stringIcSt11char_traitsIcESaIcEED2Ev.exit

_ZNSt7__cxx1112basic_stringIcSt11char_traitsIcESaIcEED2Ev.exit: ; preds = %_ZNKSt7__cxx1112basic_stringIcSt11char_traitsIcESaIcEE11_M_is_localEv.exit.thread.i.i, %_ZNKSt7__cxx1112basic_stringIcSt11char_traitsIcESaIcEE11_M_is_localEv.exit.i.i
  call void @llvm.lifetime.end.p0(i64 1, ptr nonnull %6) #26
  call void @llvm.lifetime.end.p0(i64 32, ptr nonnull %5) #26
  call void @__cxa_end_catch()
  br label %42

40:                                               ; preds = %29
  %41 = landingpad { ptr, i32 }
          cleanup
  call void @llvm.lifetime.end.p0(i64 1, ptr nonnull %6) #26
  call void @llvm.lifetime.end.p0(i64 32, ptr nonnull %5) #26
  invoke void @__cxa_end_catch()
          to label %43 unwind label %44

42:                                               ; preds = %4, %_ZNSt7__cxx1112basic_stringIcSt11char_traitsIcESaIcEED2Ev.exit, %25, %13
  %.0 = phi i32 [ -1, %13 ], [ -1, %25 ], [ -1, %_ZNSt7__cxx1112basic_stringIcSt11char_traitsIcESaIcEED2Ev.exit ], [ 0, %4 ]
  ret i32 %.0

43:                                               ; preds = %40
  resume { ptr, i32 } %41

44:                                               ; preds = %40
  %45 = landingpad { ptr, i32 }
          catch ptr null
  %46 = extractvalue { ptr, i32 } %45, 0
  call void @__clang_call_terminate(ptr %46) #40
  unreachable
}